target datalayout = "e-m:e-p270:32:32-p271:32:32-p272:64:64-i64:64-i128:128-f80:128-n8:16:32:64-S128"
target triple = "x86_64-pc-linux-gnu"

%struct.ossl_qrl_enc_level_set_st = type { [4 x %struct.ossl_qrl_enc_level_st] }
%struct.ossl_qrl_enc_level_st = type { %struct.quic_hdr_protector_st, ptr, [2 x ptr], ptr, ptr, i64, i64, i32, i32, i8, i8, [2 x [16 x i8]], [64 x i8] }
%struct.quic_hdr_protector_st = type { ptr, ptr, ptr, ptr, i32 }

; Function Attrs: nounwind uwtable
define ptr @ossl_qrl_enc_level_set_get(ptr noundef %0, i32 noundef %1, i32 noundef %2) #0 {
  %4 = alloca ptr, align 8
  %5 = alloca ptr, align 8
  %6 = alloca i32, align 4
  %7 = alloca i32, align 4
  %8 = alloca ptr, align 8
  %9 = alloca i32, align 4
  store ptr %0, ptr %5, align 8, !tbaa !3
  store i32 %1, ptr %6, align 4, !tbaa !8
  store i32 %2, ptr %7, align 4, !tbaa !8
  call void @llvm.lifetime.start.p0(i64 8, ptr %8) #5
  %10 = load i32, ptr %6, align 4, !tbaa !8
  %11 = icmp ult i32 %10, 4
  %12 = zext i1 %11 to i32
  %13 = icmp ne i32 %12, 0
  %14 = xor i1 %13, true
  %15 = xor i1 %14, true
  %16 = zext i1 %15 to i32
  %17 = sext i32 %16 to i64
  %18 = call i64 @llvm.expect.i64(i64 %17, i64 1)
  %19 = icmp ne i64 %18, 0
  br i1 %19, label %21, label %20

20:                                               ; preds = %3
  store ptr null, ptr %4, align 8
  store i32 1, ptr %9, align 4
  br label %39

21:                                               ; preds = %3
  %22 = load ptr, ptr %5, align 8, !tbaa !3
  %23 = getelementptr inbounds nuw %struct.ossl_qrl_enc_level_set_st, ptr %22, i32 0, i32 0
  %24 = load i32, ptr %6, align 4, !tbaa !8
  %25 = zext i32 %24 to i64
  %26 = getelementptr inbounds nuw [4 x %struct.ossl_qrl_enc_level_st], ptr %23, i64 0, i64 %25
  store ptr %26, ptr %8, align 8, !tbaa !10
  %27 = load i32, ptr %7, align 4, !tbaa !8
  %28 = icmp ne i32 %27, 0
  br i1 %28, label %29, label %37

29:                                               ; preds = %21
  %30 = load ptr, ptr %8, align 8, !tbaa !10
  %31 = getelementptr inbounds nuw %struct.ossl_qrl_enc_level_st, ptr %30, i32 0, i32 9
  %32 = load i8, ptr %31, align 8, !tbaa !12
  %33 = zext i8 %32 to i32
  switch i32 %33, label %35 [
    i32 1, label %34
    i32 2, label %34
    i32 3, label %34
  ]

34:                                               ; preds = %29, %29, %29
  br label %36

35:                                               ; preds = %29
  store ptr null, ptr %4, align 8
  store i32 1, ptr %9, align 4
  br label %39

36:                                               ; preds = %34
  br label %37

37:                                               ; preds = %36, %21
  %38 = load ptr, ptr %8, align 8, !tbaa !10
  store ptr %38, ptr %4, align 8
  store i32 1, ptr %9, align 4
  br label %39

39:                                               ; preds = %37, %35, %20
  call void @llvm.lifetime.end.p0(i64 8, ptr %8) #5
  %40 = load ptr, ptr %4, align 8
  ret ptr %40
}