; Function Attrs: mustprogress nofree norecurse nosync nounwind willreturn memory(argmem: read) uwtable
define ptr @ossl_qrl_enc_level_set_get(ptr noundef readonly captures(ret: address, provenance) %0, i32 noundef %1, i32 noundef %2) local_unnamed_addr #0 {
  %4 = icmp ult i32 %1, 4
  br i1 %4, label %5, label %12, !prof !3

5:                                                ; preds = %3
  %6 = zext nneg i32 %1 to i64
  %7 = getelementptr inbounds nuw [4 x %struct.ossl_qrl_enc_level_st], ptr %0, i64 0, i64 %6
  %.not = icmp eq i32 %2, 0
  br i1 %.not, label %11, label %8

8:                                                ; preds = %5
  %9 = getelementptr inbounds nuw i8, ptr %7, i64 104
  %10 = load i8, ptr %9, align 8, !tbaa !4
  %.off = add i8 %10, -1
  %switch = icmp ult i8 %.off, 3
  br i1 %switch, label %11, label %12

11:                                               ; preds = %8, %5
  br label %12

12:                                               ; preds = %8, %3, %11
  %.0 = phi ptr [ %7, %11 ], [ null, %3 ], [ null, %8 ]
  ret ptr %.0
}